target datalayout = "e-m:e-p270:32:32-p271:32:32-p272:64:64-i64:64-i128:128-f80:128-n8:16:32:64-S128"
target triple = "x86_64-pc-linux-gnu"

%struct._lv_global_t = type { i8, i8, %struct.lv_ll_t, ptr, ptr, %struct.lv_ll_t, i8, i32, i32, ptr, %struct.lv_ll_t, ptr, %struct.lv_ll_t, ptr, ptr, i32, ptr, i8, i32, i32, ptr, i32, %struct.lv_timer_state_t, %struct.lv_anim_state_t, %struct.lv_tick_state_t, %struct._lv_draw_buf_handlers_t, %struct._lv_draw_buf_handlers_t, %struct._lv_draw_buf_handlers_t, %struct.lv_ll_t, ptr, ptr, %struct.lv_draw_global_info_t, [4 x %struct.lv_draw_sw_mask_radius_circle_dsc_t], ptr, ptr, ptr, %struct.lv_tlsf_state_t, %struct.lv_ll_t, ptr, ptr, %struct.lv_style_t, i64, ptr, i32, ptr }
%struct.lv_timer_state_t = type { %struct.lv_ll_t, i8, i8, i8, i8, i32, i8, i32, i32, i32, i32, ptr, ptr }
%struct.lv_anim_state_t = type { i8, i8, ptr, %struct.lv_ll_t }
%struct.lv_tick_state_t = type { i32, i8, ptr, ptr }
%struct._lv_draw_buf_handlers_t = type { ptr, ptr, ptr, ptr, ptr, ptr }
%struct.lv_draw_global_info_t = type { ptr, i32, i32, i32, i32, i8 }
%struct.lv_draw_sw_mask_radius_circle_dsc_t = type { ptr, ptr, ptr, ptr, i32, i32, i32 }
%struct.lv_tlsf_state_t = type { ptr, i64, i64, %struct.lv_ll_t }
%struct.lv_ll_t = type { i32, ptr, ptr }
%struct.lv_style_t = type { ptr, i32, i8 }
%struct._lv_display_t = type { i32, i32, i32, i32, i32, i32, i32, ptr, ptr, ptr, ptr, ptr, i32, i32, i8, i32, i16, i32, [32 x %struct.lv_area_t], [32 x i8], i32, i32, %struct.lv_ll_t, %struct._lv_draw_buf_t, %struct._lv_draw_buf_t, ptr, ptr, ptr, ptr, ptr, ptr, ptr, ptr, ptr, ptr, i32, i8, ptr, ptr, %struct.lv_event_list_t, i8, ptr, ptr, i32, %struct.lv_area_t }
%struct._lv_draw_buf_t = type { %struct.lv_image_header_t, i32, ptr, ptr, ptr }
%struct.lv_image_header_t = type <{ i64, i32 }>
%struct.lv_event_list_t = type { %struct._lv_array_t, i8 }
%struct._lv_array_t = type { ptr, i32, i32, i32, i8 }
%struct.lv_area_t = type { i32, i32, i32, i32 }

@lv_global = external global %struct._lv_global_t, align 8

; Function Attrs: nounwind uwtable
define ptr @lv_display_get_default() #0 {
  %1 = load ptr, ptr getelementptr inbounds nuw (%struct._lv_global_t, ptr @lv_global, i32 0, i32 4), align 8, !tbaa !35
  ret ptr %1
}

; Function Attrs: nounwind uwtable
define void @lv_display_set_theme(ptr noundef %0, ptr noundef %1) #0 {
  %3 = alloca ptr, align 8
  %4 = alloca ptr, align 8
  store ptr %0, ptr %3, align 8, !tbaa !7
  store ptr %1, ptr %4, align 8, !tbaa !7
  %5 = load ptr, ptr %3, align 8, !tbaa !7
  %6 = icmp ne ptr %5, null
  br i1 %6, label %9, label %7

7:                                                ; preds = %2
  %8 = call ptr @lv_display_get_default()
  store ptr %8, ptr %3, align 8, !tbaa !7
  br label %9

9:                                                ; preds = %7, %2
  %10 = load ptr, ptr %3, align 8, !tbaa !7
  %11 = icmp ne ptr %10, null
  br i1 %11, label %15, label %12

12:                                               ; preds = %9
  br label %13

13:                                               ; preds = %12
  br label %14

14:                                               ; preds = %13
  br label %53

15:                                               ; preds = %9
  %16 = load ptr, ptr %4, align 8, !tbaa !7
  %17 = load ptr, ptr %3, align 8, !tbaa !7
  %18 = getelementptr inbounds nuw %struct._lv_display_t, ptr %17, i32 0, i32 41
  store ptr %16, ptr %18, align 8, !tbaa !46
  %19 = load ptr, ptr %3, align 8, !tbaa !7
  %20 = getelementptr inbounds nuw %struct._lv_display_t, ptr %19, i32 0, i32 35
  %21 = load i32, ptr %20, align 8, !tbaa !55
  %22 = icmp eq i32 %21, 4
  br i1 %22, label %23, label %53

23:                                               ; preds = %15
  %24 = load ptr, ptr %3, align 8, !tbaa !7
  %25 = getelementptr inbounds nuw %struct._lv_display_t, ptr %24, i32 0, i32 28
  %26 = load ptr, ptr %25, align 8, !tbaa !56
  %27 = getelementptr inbounds ptr, ptr %26, i64 0
  %28 = load ptr, ptr %27, align 8, !tbaa !7
  %29 = call i32 @lv_obj_get_child_count(ptr noundef %28)
  %30 = icmp eq i32 %29, 0
  br i1 %30, label %31, label %53

31:                                               ; preds = %23
  %32 = load ptr, ptr %3, align 8, !tbaa !7
  %33 = getelementptr inbounds nuw %struct._lv_display_t, ptr %32, i32 0, i32 28
  %34 = load ptr, ptr %33, align 8, !tbaa !56
  %35 = getelementptr inbounds ptr, ptr %34, i64 1
  %36 = load ptr, ptr %35, align 8, !tbaa !7
  %37 = call i32 @lv_obj_get_child_count(ptr noundef %36)
  %38 = icmp eq i32 %37, 0
  br i1 %38, label %39, label %53

39:                                               ; preds = %31
  %40 = load ptr, ptr %3, align 8, !tbaa !7
  %41 = getelementptr inbounds nuw %struct._lv_display_t, ptr %40, i32 0, i32 28
  %42 = load ptr, ptr %41, align 8, !tbaa !56
  %43 = getelementptr inbounds ptr, ptr %42, i64 2
  %44 = load ptr, ptr %43, align 8, !tbaa !7
  %45 = call i32 @lv_obj_get_child_count(ptr noundef %44)
  %46 = icmp eq i32 %45, 0
  br i1 %46, label %47, label %53

47:                                               ; preds = %39
  %48 = load ptr, ptr %3, align 8, !tbaa !7
  %49 = getelementptr inbounds nuw %struct._lv_display_t, ptr %48, i32 0, i32 28
  %50 = load ptr, ptr %49, align 8, !tbaa !56
  %51 = getelementptr inbounds ptr, ptr %50, i64 0
  %52 = load ptr, ptr %51, align 8, !tbaa !7
  call void @lv_theme_apply(ptr noundef %52)
  br label %53

53:                                               ; preds = %14, %47, %39, %31, %23, %15
  ret void
}