; Function Attrs: nounwind uwtable
define void @lv_display_set_theme(ptr noundef %0, ptr noundef %1) local_unnamed_addr #0 {
  %.not = icmp eq ptr %0, null
  br i1 %.not, label %3, label %.thread

3:                                                ; preds = %2
  %4 = load ptr, ptr getelementptr inbounds nuw (i8, ptr @lv_global, i64 40), align 8, !tbaa !33
  %.not10 = icmp eq ptr %4, null
  br i1 %.not10, label %30, label %.thread

.thread:                                          ; preds = %2, %3
  %.013 = phi ptr [ %4, %3 ], [ %0, %2 ]
  %5 = getelementptr inbounds nuw i8, ptr %.013, i64 896
  store ptr %1, ptr %5, align 8, !tbaa !79
  %6 = getelementptr inbounds nuw i8, ptr %.013, i64 832
  %7 = load i32, ptr %6, align 8, !tbaa !55
  %8 = icmp eq i32 %7, 4
  br i1 %8, label %9, label %30

9:                                                ; preds = %.thread
  %10 = getelementptr inbounds nuw i8, ptr %.013, i64 776
  %11 = load ptr, ptr %10, align 8, !tbaa !56
  %12 = load ptr, ptr %11, align 8, !tbaa !57
  %13 = tail call i32 @lv_obj_get_child_count(ptr noundef %12) #13
  %14 = icmp eq i32 %13, 0
  br i1 %14, label %15, label %30

15:                                               ; preds = %9
  %16 = load ptr, ptr %10, align 8, !tbaa !56
  %17 = getelementptr inbounds i8, ptr %16, i64 8
  %18 = load ptr, ptr %17, align 8, !tbaa !57
  %19 = tail call i32 @lv_obj_get_child_count(ptr noundef %18) #13
  %20 = icmp eq i32 %19, 0
  br i1 %20, label %21, label %30

21:                                               ; preds = %15
  %22 = load ptr, ptr %10, align 8, !tbaa !56
  %23 = getelementptr inbounds i8, ptr %22, i64 16
  %24 = load ptr, ptr %23, align 8, !tbaa !57
  %25 = tail call i32 @lv_obj_get_child_count(ptr noundef %24) #13
  %26 = icmp eq i32 %25, 0
  br i1 %26, label %27, label %30

27:                                               ; preds = %21
  %28 = load ptr, ptr %10, align 8, !tbaa !56
  %29 = load ptr, ptr %28, align 8, !tbaa !57
  tail call void @lv_theme_apply(ptr noundef %29) #13
  br label %30

30:                                               ; preds = %3, %27, %21, %15, %9, %.thread
  ret void
}